; Function Attrs: mustprogress uwtable
define dso_local void @_ZN17cmFindPathCommand10FindHeaderB5cxx11Ev(ptr dead_on_unwind noalias writable sret(%"class.std::__cxx11::basic_string") align 8 %0, ptr noundef nonnull align 8 dereferenceable(601) %1) local_unnamed_addr #3 align 2 personality ptr @__gxx_personality_v0 {
  %3 = alloca %class.cmFindBaseDebugState, align 8
  %4 = alloca %"class.std::__cxx11::basic_string", align 8
  %5 = alloca %"class.std::__cxx11::basic_string", align 8
  %6 = alloca %"class.std::__cxx11::basic_string", align 8
  %7 = alloca %"class.std::__cxx11::basic_string", align 8
  %8 = getelementptr inbounds i8, ptr %1, i64 392
  call void @_ZNSt7__cxx1112basic_stringIcSt11char_traitsIcESaIcEEC1ERKS4_(ptr noundef nonnull align 8 dereferenceable(32) %4, ptr noundef nonnull align 8 dereferenceable(32) %8)
  invoke void @_ZN20cmFindBaseDebugStateC1ENSt7__cxx1112basic_stringIcSt11char_traitsIcESaIcEEEPK10cmFindBase(ptr noundef nonnull align 8 dereferenceable(128) %3, ptr noundef nonnull %4, ptr noundef nonnull %1)
          to label %9 unwind label %20

9:                                                ; preds = %2
  call void @_ZNSt7__cxx1112basic_stringIcSt11char_traitsIcESaIcEED1Ev(ptr noundef nonnull align 8 dereferenceable(32) %4) #12
  call void @_ZNSt7__cxx1112basic_stringIcSt11char_traitsIcESaIcEEC1Ev(ptr noundef nonnull align 8 dereferenceable(32) %0) #12
  %10 = getelementptr inbounds i8, ptr %1, i64 368
  %11 = load i8, ptr %10, align 8
  %12 = and i8 %11, 1
  %.not = icmp eq i8 %12, 0
  br i1 %.not, label %13, label %17

13:                                               ; preds = %9
  %14 = getelementptr inbounds i8, ptr %1, i64 369
  %15 = load i8, ptr %14, align 1
  %16 = and i8 %15, 1
  %.not4 = icmp eq i8 %16, 0
  br i1 %.not4, label %24, label %17

17:                                               ; preds = %13, %9
  invoke void @_ZN17cmFindPathCommand19FindFrameworkHeaderB5cxx11ER20cmFindBaseDebugState(ptr dead_on_unwind nonnull writable sret(%"class.std::__cxx11::basic_string") align 8 %5, ptr noundef nonnull align 8 dereferenceable(601) %1, ptr noundef nonnull align 8 dereferenceable(128) %3)
          to label %18 unwind label %22

18:                                               ; preds = %17
  %19 = call noundef nonnull align 8 dereferenceable(32) ptr @_ZNSt7__cxx1112basic_stringIcSt11char_traitsIcESaIcEEaSEOS4_(ptr noundef nonnull align 8 dereferenceable(32) %0, ptr noundef nonnull align 8 dereferenceable(32) %5) #12
  call void @_ZNSt7__cxx1112basic_stringIcSt11char_traitsIcESaIcEED1Ev(ptr noundef nonnull align 8 dereferenceable(32) %5) #12
  br label %24

20:                                               ; preds = %2
  %21 = landingpad { ptr, i32 }
          cleanup
  call void @_ZNSt7__cxx1112basic_stringIcSt11char_traitsIcESaIcEED1Ev(ptr noundef nonnull align 8 dereferenceable(32) %4) #12
  br label %43

22:                                               ; preds = %39, %30, %17
  %23 = landingpad { ptr, i32 }
          cleanup
  call void @_ZNSt7__cxx1112basic_stringIcSt11char_traitsIcESaIcEED1Ev(ptr noundef nonnull align 8 dereferenceable(32) %0) #12
  call void @_ZN20cmFindBaseDebugStateD1Ev(ptr noundef nonnull align 8 dereferenceable(128) %3) #12
  br label %43

24:                                               ; preds = %18, %13
  %25 = call noundef zeroext i1 @_ZNKSt7__cxx1112basic_stringIcSt11char_traitsIcESaIcEE5emptyEv(ptr noundef nonnull align 8 dereferenceable(32) %0) #12
  br i1 %25, label %26, label %33

26:                                               ; preds = %24
  %27 = getelementptr inbounds i8, ptr %1, i64 369
  %28 = load i8, ptr %27, align 1
  %29 = and i8 %28, 1
  %.not5 = icmp eq i8 %29, 0
  br i1 %.not5, label %30, label %33

30:                                               ; preds = %26
  invoke void @_ZN17cmFindPathCommand16FindNormalHeaderB5cxx11ER20cmFindBaseDebugState(ptr dead_on_unwind nonnull writable sret(%"class.std::__cxx11::basic_string") align 8 %6, ptr noundef nonnull align 8 dereferenceable(601) %1, ptr noundef nonnull align 8 dereferenceable(128) %3)
          to label %31 unwind label %22

31:                                               ; preds = %30
  %32 = call noundef nonnull align 8 dereferenceable(32) ptr @_ZNSt7__cxx1112basic_stringIcSt11char_traitsIcESaIcEEaSEOS4_(ptr noundef nonnull align 8 dereferenceable(32) %0, ptr noundef nonnull align 8 dereferenceable(32) %6) #12
  call void @_ZNSt7__cxx1112basic_stringIcSt11char_traitsIcESaIcEED1Ev(ptr noundef nonnull align 8 dereferenceable(32) %6) #12
  br label %33

33:                                               ; preds = %31, %26, %24
  %34 = call noundef zeroext i1 @_ZNKSt7__cxx1112basic_stringIcSt11char_traitsIcESaIcEE5emptyEv(ptr noundef nonnull align 8 dereferenceable(32) %0) #12
  br i1 %34, label %35, label %42

35:                                               ; preds = %33
  %36 = getelementptr inbounds i8, ptr %1, i64 370
  %37 = load i8, ptr %36, align 2
  %38 = and i8 %37, 1
  %.not6 = icmp eq i8 %38, 0
  br i1 %.not6, label %42, label %39

39:                                               ; preds = %35
  invoke void @_ZN17cmFindPathCommand19FindFrameworkHeaderB5cxx11ER20cmFindBaseDebugState(ptr dead_on_unwind nonnull writable sret(%"class.std::__cxx11::basic_string") align 8 %7, ptr noundef nonnull align 8 dereferenceable(601) %1, ptr noundef nonnull align 8 dereferenceable(128) %3)
          to label %40 unwind label %22

40:                                               ; preds = %39
  %41 = call noundef nonnull align 8 dereferenceable(32) ptr @_ZNSt7__cxx1112basic_stringIcSt11char_traitsIcESaIcEEaSEOS4_(ptr noundef nonnull align 8 dereferenceable(32) %0, ptr noundef nonnull align 8 dereferenceable(32) %7) #12
  call void @_ZNSt7__cxx1112basic_stringIcSt11char_traitsIcESaIcEED1Ev(ptr noundef nonnull align 8 dereferenceable(32) %7) #12
  br label %42

42:                                               ; preds = %33, %35, %40
  call void @_ZN20cmFindBaseDebugStateD1Ev(ptr noundef nonnull align 8 dereferenceable(128) %3) #12
  ret void

43:                                               ; preds = %22, %20
  %.pn = phi { ptr, i32 } [ %23, %22 ], [ %21, %20 ]
  resume { ptr, i32 } %.pn
}